; ModuleID = 'source-C-CXX/24/1143.cpp'
source_filename = "source-C-CXX/24/1143.cpp"
target datalayout = "e-m:e-p270:32:32-p271:32:32-p272:64:64-i64:64-f80:128-n8:16:32:64-S128"
target triple = "x86_64-pc-linux-gnu"

%"class.std::ios_base::Init" = type { i8 }
%"class.std::basic_istream" = type { i32 (...)**, i64, %"class.std::basic_ios" }
%"class.std::basic_ios" = type { %"class.std::ios_base", %"class.std::basic_ostream"*, i8, i8, %"class.std::basic_streambuf"*, %"class.std::ctype"*, %"class.std::num_put"*, %"class.std::num_get"* }
%"class.std::ios_base" = type { i32 (...)**, i64, i64, i32, i32, i32, %"struct.std::ios_base::_Callback_list"*, %"struct.std::ios_base::_Words", [8 x %"struct.std::ios_base::_Words"], i32, %"struct.std::ios_base::_Words"*, %"class.std::locale" }
%"struct.std::ios_base::_Callback_list" = type { %"struct.std::ios_base::_Callback_list"*, void (i32, %"class.std::ios_base"*, i32)*, i32, i32 }
%"struct.std::ios_base::_Words" = type { i8*, i64 }
%"class.std::locale" = type { %"class.std::locale::_Impl"* }
%"class.std::locale::_Impl" = type { i32, %"class.std::locale::facet"**, i64, %"class.std::locale::facet"**, i8** }
%"class.std::locale::facet" = type <{ i32 (...)**, i32, [4 x i8] }>
%"class.std::basic_ostream" = type { i32 (...)**, %"class.std::basic_ios" }
%"class.std::basic_streambuf" = type { i32 (...)**, i8*, i8*, i8*, i8*, i8*, i8*, %"class.std::locale" }
%"class.std::ctype" = type <{ %"class.std::locale::facet.base", [4 x i8], %struct.__locale_struct*, i8, [7 x i8], i32*, i32*, i16*, i8, [256 x i8], [256 x i8], i8, [6 x i8] }>
%"class.std::locale::facet.base" = type <{ i32 (...)**, i32 }>
%struct.__locale_struct = type { [13 x %struct.__locale_data*], i16*, i32*, i32*, [13 x i8*] }
%struct.__locale_data = type opaque
%"class.std::num_put" = type { %"class.std::locale::facet.base", [4 x i8] }
%"class.std::num_get" = type { %"class.std::locale::facet.base", [4 x i8] }

@_ZStL8__ioinit = internal global %"class.std::ios_base::Init" zeroinitializer, align 1
@__dso_handle = external hidden global i8
@_ZSt3cin = external global %"class.std::basic_istream", align 8
@_ZSt4cout = external global %"class.std::basic_ostream", align 8
@llvm.global_ctors = appending global [1 x { i32, void ()*, i8* }] [{ i32, void ()*, i8* } { i32 65535, void ()* @_GLOBAL__sub_I_1143.cpp, i8* null }]

declare void @_ZNSt8ios_base4InitC1Ev(%"class.std::ios_base::Init"* nonnull align 1 dereferenceable(1)) unnamed_addr #0

; Function Attrs: nounwind
declare void @_ZNSt8ios_base4InitD1Ev(%"class.std::ios_base::Init"* nonnull align 1 dereferenceable(1)) unnamed_addr #1

; Function Attrs: nofree nounwind
declare i32 @__cxa_atexit(void (i8*)*, i8*, i8*) local_unnamed_addr #2

; Function Attrs: mustprogress norecurse sspstrong uwtable
define dso_local i32 @main() local_unnamed_addr #3 {
  %1 = alloca [201 x i32], align 16
  %2 = alloca i32, align 4
  %3 = bitcast [201 x i32]* %1 to i8*
  call void @llvm.lifetime.start.p0i8(i64 804, i8* nonnull %3) #8
  %4 = getelementptr inbounds [201 x i32], [201 x i32]* %1, i64 0, i64 0
  call void @llvm.memset.p0i8.i64(i8* noundef nonnull align 16 dereferenceable(804) %3, i8 0, i64 804, i1 false)
  %5 = bitcast i32* %2 to i8*
  call void @llvm.lifetime.start.p0i8(i64 4, i8* nonnull %5) #8
  %6 = call nonnull align 8 dereferenceable(16) %"class.std::basic_istream"* @_ZNSirsERi(%"class.std::basic_istream"* nonnull align 8 dereferenceable(16) @_ZSt3cin, i32* nonnull align 4 dereferenceable(4) %2)
  store i32 1, i32* %4, align 16, !tbaa !5
  %7 = load i32, i32* %2, align 4, !tbaa !5
  %8 = icmp sgt i32 %7, 0
  br i1 %8, label %9, label %41

9:                                                ; preds = %0, %36
  %10 = phi i32 [ %38, %36 ], [ 0, %0 ]
  %11 = phi i32 [ %37, %36 ], [ 1, %0 ]
  %12 = phi i32 [ %39, %36 ], [ 0, %0 ]
  %13 = icmp sgt i32 %11, 0
  br i1 %13, label %14, label %36

14:                                               ; preds = %9, %30
  %15 = phi i64 [ %33, %30 ], [ 0, %9 ]
  %16 = phi i32 [ %32, %30 ], [ %10, %9 ]
  %17 = phi i32 [ %31, %30 ], [ %11, %9 ]
  %18 = getelementptr inbounds [201 x i32], [201 x i32]* %1, i64 0, i64 %15
  %19 = load i32, i32* %18, align 4, !tbaa !5
  %20 = shl nsw i32 %19, 1
  %21 = add nsw i32 %20, %16
  store i32 %21, i32* %18, align 4, !tbaa !5
  %22 = icmp sgt i32 %21, 9
  br i1 %22, label %23, label %30

23:                                               ; preds = %14
  %24 = add nsw i32 %21, -10
  store i32 %24, i32* %18, align 4, !tbaa !5
  %25 = add nsw i32 %17, -1
  %26 = zext i32 %25 to i64
  %27 = icmp eq i64 %15, %26
  %28 = zext i1 %27 to i32
  %29 = add nsw i32 %17, %28
  br label %30

30:                                               ; preds = %23, %14
  %31 = phi i32 [ %29, %23 ], [ %17, %14 ]
  %32 = phi i32 [ 1, %23 ], [ 0, %14 ]
  %33 = add nuw nsw i64 %15, 1
  %34 = sext i32 %31 to i64
  %35 = icmp slt i64 %33, %34
  br i1 %35, label %14, label %36, !llvm.loop !9

36:                                               ; preds = %30, %9
  %37 = phi i32 [ %11, %9 ], [ %31, %30 ]
  %38 = phi i32 [ %10, %9 ], [ %32, %30 ]
  %39 = add nuw nsw i32 %12, 1
  %40 = icmp eq i32 %39, %7
  br i1 %40, label %41, label %9, !llvm.loop !11

41:                                               ; preds = %36, %0
  br label %42

42:                                               ; preds = %41, %42
  %43 = phi i64 [ %47, %42 ], [ 200, %41 ]
  %44 = getelementptr inbounds [201 x i32], [201 x i32]* %1, i64 0, i64 %43
  %45 = load i32, i32* %44, align 4, !tbaa !5
  %46 = icmp eq i32 %45, 0
  %47 = add i64 %43, -1
  br i1 %46, label %42, label %48, !llvm.loop !12

48:                                               ; preds = %42
  %49 = trunc i64 %43 to i32
  %50 = icmp sgt i32 %49, -1
  br i1 %50, label %51, label %60

51:                                               ; preds = %48
  %52 = and i64 %43, 4294967295
  br label %53

53:                                               ; preds = %51, %53
  %54 = phi i64 [ %52, %51 ], [ %59, %53 ]
  %55 = getelementptr inbounds [201 x i32], [201 x i32]* %1, i64 0, i64 %54
  %56 = load i32, i32* %55, align 4, !tbaa !5
  %57 = call nonnull align 8 dereferenceable(8) %"class.std::basic_ostream"* @_ZNSolsEi(%"class.std::basic_ostream"* nonnull align 8 dereferenceable(8) @_ZSt4cout, i32 %56)
  %58 = icmp sgt i64 %54, 0
  %59 = add nsw i64 %54, -1
  br i1 %58, label %53, label %60, !llvm.loop !13

60:                                               ; preds = %53, %48
  %61 = load i8*, i8** bitcast (%"class.std::basic_ostream"* @_ZSt4cout to i8**), align 8, !tbaa !14
  %62 = getelementptr i8, i8* %61, i64 -24
  %63 = bitcast i8* %62 to i64*
  %64 = load i64, i64* %63, align 8
  %65 = add nsw i64 %64, 240
  %66 = getelementptr inbounds i8, i8* bitcast (%"class.std::basic_ostream"* @_ZSt4cout to i8*), i64 %65
  %67 = bitcast i8* %66 to %"class.std::ctype"**
  %68 = load %"class.std::ctype"*, %"class.std::ctype"** %67, align 8, !tbaa !16
  %69 = icmp eq %"class.std::ctype"* %68, null
  br i1 %69, label %70, label %71

70:                                               ; preds = %60
  call void @_ZSt16__throw_bad_castv() #9
  unreachable

71:                                               ; preds = %60
  %72 = getelementptr inbounds %"class.std::ctype", %"class.std::ctype"* %68, i64 0, i32 8
  %73 = load i8, i8* %72, align 8, !tbaa !20
  %74 = icmp eq i8 %73, 0
  br i1 %74, label %78, label %75

75:                                               ; preds = %71
  %76 = getelementptr inbounds %"class.std::ctype", %"class.std::ctype"* %68, i64 0, i32 9, i64 10
  %77 = load i8, i8* %76, align 1, !tbaa !22
  br label %84

78:                                               ; preds = %71
  call void @_ZNKSt5ctypeIcE13_M_widen_initEv(%"class.std::ctype"* nonnull align 8 dereferenceable(570) %68)
  %79 = bitcast %"class.std::ctype"* %68 to i8 (%"class.std::ctype"*, i8)***
  %80 = load i8 (%"class.std::ctype"*, i8)**, i8 (%"class.std::ctype"*, i8)*** %79, align 8, !tbaa !14
  %81 = getelementptr inbounds i8 (%"class.std::ctype"*, i8)*, i8 (%"class.std::ctype"*, i8)** %80, i64 6
  %82 = load i8 (%"class.std::ctype"*, i8)*, i8 (%"class.std::ctype"*, i8)** %81, align 8
  %83 = call signext i8 %82(%"class.std::ctype"* nonnull align 8 dereferenceable(570) %68, i8 signext 10)
  br label %84

84:                                               ; preds = %75, %78
  %85 = phi i8 [ %77, %75 ], [ %83, %78 ]
  %86 = call nonnull align 8 dereferenceable(8) %"class.std::basic_ostream"* @_ZNSo3putEc(%"class.std::basic_ostream"* nonnull align 8 dereferenceable(8) @_ZSt4cout, i8 signext %85)
  %87 = call nonnull align 8 dereferenceable(8) %"class.std::basic_ostream"* @_ZNSo5flushEv(%"class.std::basic_ostream"* nonnull align 8 dereferenceable(8) %86)
  call void @llvm.lifetime.end.p0i8(i64 4, i8* nonnull %5) #8
  call void @llvm.lifetime.end.p0i8(i64 804, i8* nonnull %3) #8
  ret i32 0
}

; Function Attrs: argmemonly mustprogress nofree nosync nounwind willreturn
declare void @llvm.lifetime.start.p0i8(i64 immarg, i8* nocapture) #4

; Function Attrs: argmemonly mustprogress nofree nounwind willreturn writeonly
declare void @llvm.memset.p0i8.i64(i8* nocapture writeonly, i8, i64, i1 immarg) #5

declare nonnull align 8 dereferenceable(16) %"class.std::basic_istream"* @_ZNSirsERi(%"class.std::basic_istream"* nonnull align 8 dereferenceable(16), i32* nonnull align 4 dereferenceable(4)) local_unnamed_addr #0

declare nonnull align 8 dereferenceable(8) %"class.std::basic_ostream"* @_ZNSolsEi(%"class.std::basic_ostream"* nonnull align 8 dereferenceable(8), i32) local_unnamed_addr #0

; Function Attrs: argmemonly mustprogress nofree nosync nounwind willreturn
declare void @llvm.lifetime.end.p0i8(i64 immarg, i8* nocapture) #4

declare nonnull align 8 dereferenceable(8) %"class.std::basic_ostream"* @_ZNSo3putEc(%"class.std::basic_ostream"* nonnull align 8 dereferenceable(8), i8 signext) local_unnamed_addr #0

declare nonnull align 8 dereferenceable(8) %"class.std::basic_ostream"* @_ZNSo5flushEv(%"class.std::basic_ostream"* nonnull align 8 dereferenceable(8)) local_unnamed_addr #0

; Function Attrs: noreturn
declare void @_ZSt16__throw_bad_castv() local_unnamed_addr #6

declare void @_ZNKSt5ctypeIcE13_M_widen_initEv(%"class.std::ctype"* nonnull align 8 dereferenceable(570)) local_unnamed_addr #0

; Function Attrs: sspstrong uwtable
define internal void @_GLOBAL__sub_I_1143.cpp() #7 section ".text.startup" {
  tail call void @_ZNSt8ios_base4InitC1Ev(%"class.std::ios_base::Init"* nonnull align 1 dereferenceable(1) @_ZStL8__ioinit)
  %1 = tail call i32 @__cxa_atexit(void (i8*)* bitcast (void (%"class.std::ios_base::Init"*)* @_ZNSt8ios_base4InitD1Ev to void (i8*)*), i8* getelementptr inbounds (%"class.std::ios_base::Init", %"class.std::ios_base::Init"* @_ZStL8__ioinit, i64 0, i32 0), i8* nonnull @__dso_handle) #8
  ret void
}


!llvm.module.flags = !{!0, !1, !2, !3}
!llvm.ident = !{!4}

!0 = !{i32 1, !"wchar_size", i32 4}
!1 = !{i32 7, !"PIC Level", i32 2}
!2 = !{i32 7, !"PIE Level", i32 2}
!3 = !{i32 7, !"uwtable", i32 1}
!4 = !{!"clang version 13.0.0"}
!5 = !{!6, !6, i64 0}
!6 = !{!"int", !7, i64 0}
!7 = !{!"omnipotent char", !8, i64 0}
!8 = !{!"Simple C++ TBAA"}
!9 = distinct !{!9, !10}
!10 = !{!"llvm.loop.mustprogress"}
!11 = distinct !{!11, !10}
!12 = distinct !{!12, !10}
!13 = distinct !{!13, !10}
!14 = !{!15, !15, i64 0}
!15 = !{!"vtable pointer", !8, i64 0}
!16 = !{!17, !18, i64 240}
!17 = !{!"_ZTSSt9basic_iosIcSt11char_traitsIcEE", !18, i64 216, !7, i64 224, !19, i64 225, !18, i64 232, !18, i64 240, !18, i64 248, !18, i64 256}
!18 = !{!"any pointer", !7, i64 0}
!19 = !{!"bool", !7, i64 0}
!20 = !{!21, !7, i64 56}
!21 = !{!"_ZTSSt5ctypeIcE", !18, i64 16, !19, i64 24, !18, i64 32, !18, i64 40, !18, i64 48, !7, i64 56, !7, i64 57, !7, i64 313, !7, i64 569}
!22 = !{!7, !7, i64 0}
